target datalayout = "e-m:e-p270:32:32-p271:32:32-p272:64:64-i64:64-i128:128-f80:128-n8:16:32:64-S128"
target triple = "x86_64-pc-linux-gnu"

%struct.numeric = type { i32, i32, i32, i32, i32, ptr, ptr }

; Function Attrs: nounwind uwtable
define internal i32 @add_abs(ptr noundef %0, ptr noundef %1, ptr noundef %2) #0 {
  %4 = alloca i32, align 4
  %5 = alloca ptr, align 8
  %6 = alloca ptr, align 8
  %7 = alloca ptr, align 8
  %8 = alloca ptr, align 8
  %9 = alloca ptr, align 8
  %10 = alloca i32, align 4
  %11 = alloca i32, align 4
  %12 = alloca i32, align 4
  %13 = alloca i32, align 4
  %14 = alloca i32, align 4
  %15 = alloca i32, align 4
  %16 = alloca i32, align 4
  %17 = alloca i32, align 4
  %18 = alloca i32, align 4
  %19 = alloca i32, align 4
  %20 = alloca ptr, align 8
  %21 = alloca ptr, align 8
  %22 = alloca i32, align 4
  store ptr %0, ptr %5, align 8
  store ptr %1, ptr %6, align 8
  store ptr %2, ptr %7, align 8
  call void @llvm.lifetime.start.p0(i64 8, ptr %8) #8
  call void @llvm.lifetime.start.p0(i64 8, ptr %9) #8
  call void @llvm.lifetime.start.p0(i64 4, ptr %10) #8
  call void @llvm.lifetime.start.p0(i64 4, ptr %11) #8
  call void @llvm.lifetime.start.p0(i64 4, ptr %12) #8
  call void @llvm.lifetime.start.p0(i64 4, ptr %13) #8
  call void @llvm.lifetime.start.p0(i64 4, ptr %14) #8
  call void @llvm.lifetime.start.p0(i64 4, ptr %15) #8
  call void @llvm.lifetime.start.p0(i64 4, ptr %16) #8
  call void @llvm.lifetime.start.p0(i64 4, ptr %17) #8
  store i32 0, ptr %17, align 4
  call void @llvm.lifetime.start.p0(i64 4, ptr %18) #8
  %23 = load ptr, ptr %5, align 8
  %24 = getelementptr inbounds nuw %struct.numeric, ptr %23, i32 0, i32 0
  %25 = load i32, ptr %24, align 8
  store i32 %25, ptr %18, align 4
  call void @llvm.lifetime.start.p0(i64 4, ptr %19) #8
  %26 = load ptr, ptr %6, align 8
  %27 = getelementptr inbounds nuw %struct.numeric, ptr %26, i32 0, i32 0
  %28 = load i32, ptr %27, align 8
  store i32 %28, ptr %19, align 4
  call void @llvm.lifetime.start.p0(i64 8, ptr %20) #8
  %29 = load ptr, ptr %5, align 8
  %30 = getelementptr inbounds nuw %struct.numeric, ptr %29, i32 0, i32 6
  %31 = load ptr, ptr %30, align 8
  store ptr %31, ptr %20, align 8
  call void @llvm.lifetime.start.p0(i64 8, ptr %21) #8
  %32 = load ptr, ptr %6, align 8
  %33 = getelementptr inbounds nuw %struct.numeric, ptr %32, i32 0, i32 6
  %34 = load ptr, ptr %33, align 8
  store ptr %34, ptr %21, align 8
  %35 = load ptr, ptr %5, align 8
  %36 = getelementptr inbounds nuw %struct.numeric, ptr %35, i32 0, i32 1
  %37 = load i32, ptr %36, align 4
  %38 = load ptr, ptr %6, align 8
  %39 = getelementptr inbounds nuw %struct.numeric, ptr %38, i32 0, i32 1
  %40 = load i32, ptr %39, align 4
  %41 = icmp sgt i32 %37, %40
  br i1 %41, label %42, label %46

42:                                               ; preds = %3
  %43 = load ptr, ptr %5, align 8
  %44 = getelementptr inbounds nuw %struct.numeric, ptr %43, i32 0, i32 1
  %45 = load i32, ptr %44, align 4
  br label %50

46:                                               ; preds = %3
  %47 = load ptr, ptr %6, align 8
  %48 = getelementptr inbounds nuw %struct.numeric, ptr %47, i32 0, i32 1
  %49 = load i32, ptr %48, align 4
  br label %50

50:                                               ; preds = %46, %42
  %51 = phi i32 [ %45, %42 ], [ %49, %46 ]
  %52 = add i32 %51, 1
  store i32 %52, ptr %11, align 4
  %53 = load ptr, ptr %5, align 8
  %54 = getelementptr inbounds nuw %struct.numeric, ptr %53, i32 0, i32 2
  %55 = load i32, ptr %54, align 8
  %56 = load ptr, ptr %6, align 8
  %57 = getelementptr inbounds nuw %struct.numeric, ptr %56, i32 0, i32 2
  %58 = load i32, ptr %57, align 8
  %59 = icmp sgt i32 %55, %58
  br i1 %59, label %60, label %64

60:                                               ; preds = %50
  %61 = load ptr, ptr %5, align 8
  %62 = getelementptr inbounds nuw %struct.numeric, ptr %61, i32 0, i32 2
  %63 = load i32, ptr %62, align 8
  br label %68

64:                                               ; preds = %50
  %65 = load ptr, ptr %6, align 8
  %66 = getelementptr inbounds nuw %struct.numeric, ptr %65, i32 0, i32 2
  %67 = load i32, ptr %66, align 8
  br label %68

68:                                               ; preds = %64, %60
  %69 = phi i32 [ %63, %60 ], [ %67, %64 ]
  store i32 %69, ptr %12, align 4
  %70 = load ptr, ptr %5, align 8
  %71 = getelementptr inbounds nuw %struct.numeric, ptr %70, i32 0, i32 3
  %72 = load i32, ptr %71, align 4
  %73 = load ptr, ptr %6, align 8
  %74 = getelementptr inbounds nuw %struct.numeric, ptr %73, i32 0, i32 3
  %75 = load i32, ptr %74, align 4
  %76 = icmp sgt i32 %72, %75
  br i1 %76, label %77, label %81

77:                                               ; preds = %68
  %78 = load ptr, ptr %5, align 8
  %79 = getelementptr inbounds nuw %struct.numeric, ptr %78, i32 0, i32 3
  %80 = load i32, ptr %79, align 4
  br label %85

81:                                               ; preds = %68
  %82 = load ptr, ptr %6, align 8
  %83 = getelementptr inbounds nuw %struct.numeric, ptr %82, i32 0, i32 3
  %84 = load i32, ptr %83, align 4
  br label %85

85:                                               ; preds = %81, %77
  %86 = phi i32 [ %80, %77 ], [ %84, %81 ]
  store i32 %86, ptr %13, align 4
  %87 = load i32, ptr %12, align 4
  %88 = load i32, ptr %11, align 4
  %89 = add i32 %87, %88
  %90 = add i32 %89, 1
  store i32 %90, ptr %10, align 4
  %91 = load i32, ptr %10, align 4
  %92 = icmp sle i32 %91, 0
  br i1 %92, label %93, label %94

93:                                               ; preds = %85
  store i32 1, ptr %10, align 4
  br label %94

94:                                               ; preds = %93, %85
  %95 = load i32, ptr %10, align 4
  %96 = sext i32 %95 to i64
  %97 = call ptr @pgtypes_alloc(i64 noundef %96)
  store ptr %97, ptr %8, align 8
  %98 = icmp eq ptr %97, null
  br i1 %98, label %99, label %100

99:                                               ; preds = %94
  store i32 -1, ptr %4, align 4
  store i32 1, ptr %22, align 4
  br label %239

100:                                              ; preds = %94
  %101 = load ptr, ptr %8, align 8
  store ptr %101, ptr %9, align 8
  %102 = load i32, ptr %12, align 4
  %103 = load ptr, ptr %5, align 8
  %104 = getelementptr inbounds nuw %struct.numeric, ptr %103, i32 0, i32 1
  %105 = load i32, ptr %104, align 4
  %106 = add i32 %102, %105
  %107 = add i32 %106, 1
  store i32 %107, ptr %15, align 4
  %108 = load i32, ptr %12, align 4
  %109 = load ptr, ptr %6, align 8
  %110 = getelementptr inbounds nuw %struct.numeric, ptr %109, i32 0, i32 1
  %111 = load i32, ptr %110, align 4
  %112 = add i32 %108, %111
  %113 = add i32 %112, 1
  store i32 %113, ptr %16, align 4
  %114 = load i32, ptr %10, align 4
  %115 = sub i32 %114, 1
  store i32 %115, ptr %14, align 4
  br label %116

116:                                              ; preds = %174, %100
  %117 = load i32, ptr %14, align 4
  %118 = icmp sge i32 %117, 0
  br i1 %118, label %119, label %177

119:                                              ; preds = %116
  %120 = load i32, ptr %15, align 4
  %121 = add i32 %120, -1
  store i32 %121, ptr %15, align 4
  %122 = load i32, ptr %16, align 4
  %123 = add i32 %122, -1
  store i32 %123, ptr %16, align 4
  %124 = load i32, ptr %15, align 4
  %125 = icmp sge i32 %124, 0
  br i1 %125, label %126, label %139

126:                                              ; preds = %119
  %127 = load i32, ptr %15, align 4
  %128 = load i32, ptr %18, align 4
  %129 = icmp slt i32 %127, %128
  br i1 %129, label %130, label %139

130:                                              ; preds = %126
  %131 = load ptr, ptr %20, align 8
  %132 = load i32, ptr %15, align 4
  %133 = sext i32 %132 to i64
  %134 = getelementptr inbounds i8, ptr %131, i64 %133
  %135 = load i8, ptr %134, align 1
  %136 = zext i8 %135 to i32
  %137 = load i32, ptr %17, align 4
  %138 = add i32 %137, %136
  store i32 %138, ptr %17, align 4
  br label %139

139:                                              ; preds = %130, %126, %119
  %140 = load i32, ptr %16, align 4
  %141 = icmp sge i32 %140, 0
  br i1 %141, label %142, label %155

142:                                              ; preds = %139
  %143 = load i32, ptr %16, align 4
  %144 = load i32, ptr %19, align 4
  %145 = icmp slt i32 %143, %144
  br i1 %145, label %146, label %155

146:                                              ; preds = %142
  %147 = load ptr, ptr %21, align 8
  %148 = load i32, ptr %16, align 4
  %149 = sext i32 %148 to i64
  %150 = getelementptr inbounds i8, ptr %147, i64 %149
  %151 = load i8, ptr %150, align 1
  %152 = zext i8 %151 to i32
  %153 = load i32, ptr %17, align 4
  %154 = add i32 %153, %152
  store i32 %154, ptr %17, align 4
  br label %155

155:                                              ; preds = %146, %142, %139
  %156 = load i32, ptr %17, align 4
  %157 = icmp sge i32 %156, 10
  br i1 %157, label %158, label %166

158:                                              ; preds = %155
  %159 = load i32, ptr %17, align 4
  %160 = sub i32 %159, 10
  %161 = trunc i32 %160 to i8
  %162 = load ptr, ptr %9, align 8
  %163 = load i32, ptr %14, align 4
  %164 = sext i32 %163 to i64
  %165 = getelementptr inbounds i8, ptr %162, i64 %164
  store i8 %161, ptr %165, align 1
  store i32 1, ptr %17, align 4
  br label %173

166:                                              ; preds = %155
  %167 = load i32, ptr %17, align 4
  %168 = trunc i32 %167 to i8
  %169 = load ptr, ptr %9, align 8
  %170 = load i32, ptr %14, align 4
  %171 = sext i32 %170 to i64
  %172 = getelementptr inbounds i8, ptr %169, i64 %171
  store i8 %168, ptr %172, align 1
  store i32 0, ptr %17, align 4
  br label %173

173:                                              ; preds = %166, %158
  br label %174

174:                                              ; preds = %173
  %175 = load i32, ptr %14, align 4
  %176 = add i32 %175, -1
  store i32 %176, ptr %14, align 4
  br label %116, !llvm.loop !15

177:                                              ; preds = %116
  br label %178

178:                                              ; preds = %188, %177
  %179 = load i32, ptr %10, align 4
  %180 = icmp sgt i32 %179, 0
  br i1 %180, label %181, label %186

181:                                              ; preds = %178
  %182 = load ptr, ptr %9, align 8
  %183 = load i8, ptr %182, align 1
  %184 = zext i8 %183 to i32
  %185 = icmp eq i32 %184, 0
  br label %186

186:                                              ; preds = %181, %178
  %187 = phi i1 [ false, %178 ], [ %185, %181 ]
  br i1 %187, label %188, label %195

188:                                              ; preds = %186
  %189 = load ptr, ptr %9, align 8
  %190 = getelementptr inbounds nuw i8, ptr %189, i32 1
  store ptr %190, ptr %9, align 8
  %191 = load i32, ptr %11, align 4
  %192 = add i32 %191, -1
  store i32 %192, ptr %11, align 4
  %193 = load i32, ptr %10, align 4
  %194 = add i32 %193, -1
  store i32 %194, ptr %10, align 4
  br label %178, !llvm.loop !16

195:                                              ; preds = %186
  br label %196

196:                                              ; preds = %210, %195
  %197 = load i32, ptr %10, align 4
  %198 = icmp sgt i32 %197, 0
  br i1 %198, label %199, label %208

199:                                              ; preds = %196
  %200 = load ptr, ptr %9, align 8
  %201 = load i32, ptr %10, align 4
  %202 = sub i32 %201, 1
  %203 = sext i32 %202 to i64
  %204 = getelementptr inbounds i8, ptr %200, i64 %203
  %205 = load i8, ptr %204, align 1
  %206 = zext i8 %205 to i32
  %207 = icmp eq i32 %206, 0
  br label %208

208:                                              ; preds = %199, %196
  %209 = phi i1 [ false, %196 ], [ %207, %199 ]
  br i1 %209, label %210, label %213

210:                                              ; preds = %208
  %211 = load i32, ptr %10, align 4
  %212 = add i32 %211, -1
  store i32 %212, ptr %10, align 4
  br label %196, !llvm.loop !17

213:                                              ; preds = %208
  %214 = load i32, ptr %10, align 4
  %215 = icmp eq i32 %214, 0
  br i1 %215, label %216, label %217

216:                                              ; preds = %213
  store i32 0, ptr %11, align 4
  br label %217

217:                                              ; preds = %216, %213
  %218 = load ptr, ptr %7, align 8
  %219 = getelementptr inbounds nuw %struct.numeric, ptr %218, i32 0, i32 5
  %220 = load ptr, ptr %219, align 8
  call void @free(ptr noundef %220) #8
  %221 = load i32, ptr %10, align 4
  %222 = load ptr, ptr %7, align 8
  %223 = getelementptr inbounds nuw %struct.numeric, ptr %222, i32 0, i32 0
  store i32 %221, ptr %223, align 8
  %224 = load ptr, ptr %8, align 8
  %225 = load ptr, ptr %7, align 8
  %226 = getelementptr inbounds nuw %struct.numeric, ptr %225, i32 0, i32 5
  store ptr %224, ptr %226, align 8
  %227 = load ptr, ptr %9, align 8
  %228 = load ptr, ptr %7, align 8
  %229 = getelementptr inbounds nuw %struct.numeric, ptr %228, i32 0, i32 6
  store ptr %227, ptr %229, align 8
  %230 = load i32, ptr %11, align 4
  %231 = load ptr, ptr %7, align 8
  %232 = getelementptr inbounds nuw %struct.numeric, ptr %231, i32 0, i32 1
  store i32 %230, ptr %232, align 4
  %233 = load i32, ptr %12, align 4
  %234 = load ptr, ptr %7, align 8
  %235 = getelementptr inbounds nuw %struct.numeric, ptr %234, i32 0, i32 2
  store i32 %233, ptr %235, align 8
  %236 = load i32, ptr %13, align 4
  %237 = load ptr, ptr %7, align 8
  %238 = getelementptr inbounds nuw %struct.numeric, ptr %237, i32 0, i32 3
  store i32 %236, ptr %238, align 4
  store i32 0, ptr %4, align 4
  store i32 1, ptr %22, align 4
  br label %239

239:                                              ; preds = %217, %99
  call void @llvm.lifetime.end.p0(i64 8, ptr %21) #8
  call void @llvm.lifetime.end.p0(i64 8, ptr %20) #8
  call void @llvm.lifetime.end.p0(i64 4, ptr %19) #8
  call void @llvm.lifetime.end.p0(i64 4, ptr %18) #8
  call void @llvm.lifetime.end.p0(i64 4, ptr %17) #8
  call void @llvm.lifetime.end.p0(i64 4, ptr %16) #8
  call void @llvm.lifetime.end.p0(i64 4, ptr %15) #8
  call void @llvm.lifetime.end.p0(i64 4, ptr %14) #8
  call void @llvm.lifetime.end.p0(i64 4, ptr %13) #8
  call void @llvm.lifetime.end.p0(i64 4, ptr %12) #8
  call void @llvm.lifetime.end.p0(i64 4, ptr %11) #8
  call void @llvm.lifetime.end.p0(i64 4, ptr %10) #8
  call void @llvm.lifetime.end.p0(i64 8, ptr %9) #8
  call void @llvm.lifetime.end.p0(i64 8, ptr %8) #8
  %240 = load i32, ptr %4, align 4
  ret i32 %240
}