; Function Attrs: nounwind uwtable
define internal fastcc range(i32 -1, 1) i32 @add_abs(ptr noundef readonly captures(none) %0, ptr noundef readonly captures(none) %1, ptr noundef captures(none) %2) unnamed_addr #0 {
  %4 = load i32, ptr %0, align 8
  %5 = load i32, ptr %1, align 8
  %6 = getelementptr inbounds nuw i8, ptr %0, i64 32
  %7 = load ptr, ptr %6, align 8
  %8 = getelementptr inbounds nuw i8, ptr %1, i64 32
  %9 = load ptr, ptr %8, align 8
  %10 = getelementptr inbounds nuw i8, ptr %0, i64 4
  %11 = load i32, ptr %10, align 4
  %12 = getelementptr inbounds nuw i8, ptr %1, i64 4
  %13 = load i32, ptr %12, align 4
  %. = tail call i32 @llvm.smax.i32(i32 %11, i32 %13)
  %14 = add i32 %., 1
  %15 = getelementptr inbounds nuw i8, ptr %0, i64 8
  %16 = load i32, ptr %15, align 8
  %17 = getelementptr inbounds nuw i8, ptr %1, i64 8
  %18 = load i32, ptr %17, align 8
  %19 = tail call i32 @llvm.smax.i32(i32 %16, i32 %18)
  %20 = getelementptr inbounds nuw i8, ptr %0, i64 12
  %21 = load i32, ptr %20, align 4
  %22 = getelementptr inbounds nuw i8, ptr %1, i64 12
  %23 = load i32, ptr %22, align 4
  %24 = tail call i32 @llvm.smax.i32(i32 %21, i32 %23)
  %25 = add i32 %19, 1
  %26 = add i32 %25, %14
  %.fr = freeze i32 %26
  %spec.store.select = tail call i32 @llvm.smax.i32(i32 %.fr, i32 1)
  %27 = zext nneg i32 %spec.store.select to i64
  %28 = tail call ptr @pgtypes_alloc(i64 noundef %27) #14
  %29 = icmp eq ptr %28, null
  br i1 %29, label %84, label %30

30:                                               ; preds = %3
  %31 = load i32, ptr %10, align 4
  %32 = add i32 %25, %31
  %33 = load i32, ptr %12, align 4
  %34 = add i32 %25, %33
  br label %35

35:                                               ; preds = %30, %55
  %indvars.iv = phi i64 [ %27, %30 ], [ %indvars.iv.next, %55 ]
  %.07896 = phi i32 [ 0, %30 ], [ %.3, %55 ]
  %.08095 = phi i32 [ %34, %30 ], [ %37, %55 ]
  %.08194 = phi i32 [ %32, %30 ], [ %36, %55 ]
  %indvars.iv.next = add nsw i64 %indvars.iv, -1
  %36 = add i32 %.08194, -1
  %37 = add i32 %.08095, -1
  %38 = icmp sgt i32 %36, -1
  %39 = icmp slt i32 %36, %4
  %or.cond = select i1 %38, i1 %39, i1 false
  br i1 %or.cond, label %40, label %46

40:                                               ; preds = %35
  %41 = zext nneg i32 %36 to i64
  %42 = getelementptr inbounds nuw i8, ptr %7, i64 %41
  %43 = load i8, ptr %42, align 1
  %44 = zext i8 %43 to i32
  %45 = add nuw nsw i32 %.07896, %44
  br label %46

46:                                               ; preds = %40, %35
  %.179 = phi i32 [ %45, %40 ], [ %.07896, %35 ]
  %47 = icmp sgt i32 %37, -1
  %48 = icmp slt i32 %37, %5
  %or.cond92 = select i1 %47, i1 %48, i1 false
  br i1 %or.cond92, label %49, label %55

49:                                               ; preds = %46
  %50 = zext nneg i32 %37 to i64
  %51 = getelementptr inbounds nuw i8, ptr %9, i64 %50
  %52 = load i8, ptr %51, align 1
  %53 = zext i8 %52 to i32
  %54 = add nuw nsw i32 %.179, %53
  br label %55

55:                                               ; preds = %49, %46
  %.2 = phi i32 [ %54, %49 ], [ %.179, %46 ]
  %56 = icmp samesign ugt i32 %.2, 9
  %57 = trunc i32 %.2 to i8
  %58 = add i8 %57, -10
  %.sink = select i1 %56, i8 %58, i8 %57
  %.3 = zext i1 %56 to i32
  %59 = getelementptr inbounds nuw i8, ptr %28, i64 %indvars.iv.next
  store i8 %.sink, ptr %59, align 1
  %60 = icmp samesign ugt i64 %indvars.iv, 1
  br i1 %60, label %35, label %.preheader.preheader, !llvm.loop !13

.preheader.preheader:                             ; preds = %55
  %61 = zext nneg i32 %spec.store.select to i64
  %scevgep = getelementptr i8, ptr %28, i64 %61
  br label %.preheader

.preheader:                                       ; preds = %.preheader.preheader, %64
  %.074100 = phi ptr [ %65, %64 ], [ %28, %.preheader.preheader ]
  %.07599 = phi i32 [ %67, %64 ], [ %spec.store.select, %.preheader.preheader ]
  %.07698 = phi i32 [ %66, %64 ], [ %14, %.preheader.preheader ]
  %62 = load i8, ptr %.074100, align 1
  %63 = icmp eq i8 %62, 0
  br i1 %63, label %64, label %.critedge

64:                                               ; preds = %.preheader
  %65 = getelementptr inbounds nuw i8, ptr %.074100, i64 1
  %66 = add i32 %.07698, -1
  %67 = add i32 %.07599, -1
  %68 = icmp sgt i32 %.07599, 1
  br i1 %68, label %.preheader, label %.critedge2.thread119, !llvm.loop !14

.critedge:                                        ; preds = %.preheader
  %invariant.gep = getelementptr i8, ptr %.074100, i64 -1
  %69 = icmp sgt i32 %.07599, 0
  br i1 %69, label %.lr.ph, label %.critedge2

.lr.ph:                                           ; preds = %.critedge, %73
  %.1101 = phi i32 [ %74, %73 ], [ %.07599, %.critedge ]
  %70 = zext nneg i32 %.1101 to i64
  %gep = getelementptr i8, ptr %invariant.gep, i64 %70
  %71 = load i8, ptr %gep, align 1
  %72 = icmp eq i8 %71, 0
  br i1 %72, label %73, label %.critedge2.thread119

73:                                               ; preds = %.lr.ph
  %74 = add nsw i32 %.1101, -1
  %75 = icmp sgt i32 %.1101, 1
  br i1 %75, label %.lr.ph, label %.critedge2.thread119, !llvm.loop !15

.critedge2:                                       ; preds = %.critedge
  %76 = icmp eq i32 %.07599, 0
  %spec.select = select i1 %76, i32 0, i32 %.07698
  br label %.critedge2.thread119

.critedge2.thread119:                             ; preds = %64, %73, %.lr.ph, %.critedge2
  %.1.lcssa117 = phi i32 [ %.07599, %.critedge2 ], [ 0, %73 ], [ %.1101, %.lr.ph ], [ 0, %64 ]
  %.074.lcssa110115 = phi ptr [ %.074100, %.critedge2 ], [ %.074100, %.lr.ph ], [ %.074100, %73 ], [ %scevgep, %64 ]
  %77 = phi i32 [ %spec.select, %.critedge2 ], [ 0, %73 ], [ %.07698, %.lr.ph ], [ 0, %64 ]
  %78 = getelementptr inbounds nuw i8, ptr %2, i64 24
  %79 = load ptr, ptr %78, align 8
  tail call void @free(ptr noundef %79) #14
  store i32 %.1.lcssa117, ptr %2, align 8
  store ptr %28, ptr %78, align 8
  %80 = getelementptr inbounds nuw i8, ptr %2, i64 32
  store ptr %.074.lcssa110115, ptr %80, align 8
  %81 = getelementptr inbounds nuw i8, ptr %2, i64 4
  store i32 %77, ptr %81, align 4
  %82 = getelementptr inbounds nuw i8, ptr %2, i64 8
  store i32 %19, ptr %82, align 8
  %83 = getelementptr inbounds nuw i8, ptr %2, i64 12
  store i32 %24, ptr %83, align 4
  br label %84

84:                                               ; preds = %3, %.critedge2.thread119
  %.0 = phi i32 [ 0, %.critedge2.thread119 ], [ -1, %3 ]
  ret i32 %.0
}